; ModuleID = '2/399.c'
source_filename = "2/399.c"
target datalayout = "e-m:e-p270:32:32-p271:32:32-p272:64:64-i64:64-f80:128-n8:16:32:64-S128"
target triple = "x86_64-pc-linux-gnu"

%struct.book = type { i32, [27 x i8] }

@.str = private unnamed_addr constant [3 x i8] c"%d\00", align 1
@.str.1 = private unnamed_addr constant [6 x i8] c"%d %s\00", align 1
@book = common dso_local global [1000 x %struct.book] zeroinitializer, align 16
@.str.2 = private unnamed_addr constant [7 x i8] c"%c\0A%d\0A\00", align 1
@.str.3 = private unnamed_addr constant [4 x i8] c"%d\0A\00", align 1

; Function Attrs: noinline nounwind uwtable
define dso_local i32 @main(i32 %0, i8** %1) #0 {
  %3 = alloca i32, align 4
  %4 = alloca i32, align 4
  %5 = alloca i8**, align 8
  %6 = alloca i32, align 4
  %7 = alloca i32, align 4
  %8 = alloca i32, align 4
  %9 = alloca [27 x i32], align 16
  %10 = alloca i32, align 4
  %11 = alloca i32, align 4
  %12 = alloca i32, align 4
  %13 = alloca i8, align 1
  store i32 0, i32* %3, align 4
  store i32 %0, i32* %4, align 4
  store i8** %1, i8*** %5, align 8
  store i32 0, i32* %11, align 4
  store i32 1, i32* %7, align 4
  br label %14

14:                                               ; preds = %21, %2
  %15 = load i32, i32* %7, align 4
  %16 = icmp sle i32 %15, 26
  br i1 %16, label %17, label %24

17:                                               ; preds = %14
  %18 = load i32, i32* %7, align 4
  %19 = sext i32 %18 to i64
  %20 = getelementptr inbounds [27 x i32], [27 x i32]* %9, i64 0, i64 %19
  store i32 0, i32* %20, align 4
  br label %21

21:                                               ; preds = %17
  %22 = load i32, i32* %7, align 4
  %23 = add nsw i32 %22, 1
  store i32 %23, i32* %7, align 4
  br label %14

24:                                               ; preds = %14
  %25 = call i32 (i8*, ...) @__isoc99_scanf(i8* getelementptr inbounds ([3 x i8], [3 x i8]* @.str, i64 0, i64 0), i32* %6)
  store i32 1, i32* %7, align 4
  br label %26

26:                                               ; preds = %72, %24
  %27 = load i32, i32* %7, align 4
  %28 = load i32, i32* %6, align 4
  %29 = icmp sle i32 %27, %28
  br i1 %29, label %30, label %75

30:                                               ; preds = %26
  %31 = load i32, i32* %7, align 4
  %32 = sext i32 %31 to i64
  %33 = getelementptr inbounds [1000 x %struct.book], [1000 x %struct.book]* @book, i64 0, i64 %32
  %34 = getelementptr inbounds %struct.book, %struct.book* %33, i32 0, i32 0
  %35 = load i32, i32* %7, align 4
  %36 = sext i32 %35 to i64
  %37 = getelementptr inbounds [1000 x %struct.book], [1000 x %struct.book]* @book, i64 0, i64 %36
  %38 = getelementptr inbounds %struct.book, %struct.book* %37, i32 0, i32 1
  %39 = call i32 (i8*, ...) @__isoc99_scanf(i8* getelementptr inbounds ([6 x i8], [6 x i8]* @.str.1, i64 0, i64 0), i32* %34, [27 x i8]* %38)
  %40 = load i32, i32* %7, align 4
  %41 = sext i32 %40 to i64
  %42 = getelementptr inbounds [1000 x %struct.book], [1000 x %struct.book]* @book, i64 0, i64 %41
  %43 = getelementptr inbounds %struct.book, %struct.book* %42, i32 0, i32 1
  %44 = getelementptr inbounds [27 x i8], [27 x i8]* %43, i64 0, i64 0
  %45 = call i64 @strlen(i8* %44) #3
  %46 = trunc i64 %45 to i32
  store i32 %46, i32* %10, align 4
  store i32 0, i32* %8, align 4
  br label %47

47:                                               ; preds = %68, %30
  %48 = load i32, i32* %8, align 4
  %49 = load i32, i32* %10, align 4
  %50 = sub nsw i32 %49, 1
  %51 = icmp sle i32 %48, %50
  br i1 %51, label %52, label %71

52:                                               ; preds = %47
  %53 = load i32, i32* %7, align 4
  %54 = sext i32 %53 to i64
  %55 = getelementptr inbounds [1000 x %struct.book], [1000 x %struct.book]* @book, i64 0, i64 %54
  %56 = getelementptr inbounds %struct.book, %struct.book* %55, i32 0, i32 1
  %57 = load i32, i32* %8, align 4
  %58 = sext i32 %57 to i64
  %59 = getelementptr inbounds [27 x i8], [27 x i8]* %56, i64 0, i64 %58
  %60 = load i8, i8* %59, align 1
  store i8 %60, i8* %13, align 1
  %61 = load i8, i8* %13, align 1
  %62 = sext i8 %61 to i32
  %63 = sub nsw i32 %62, 64
  %64 = sext i32 %63 to i64
  %65 = getelementptr inbounds [27 x i32], [27 x i32]* %9, i64 0, i64 %64
  %66 = load i32, i32* %65, align 4
  %67 = add nsw i32 %66, 1
  store i32 %67, i32* %65, align 4
  br label %68

68:                                               ; preds = %52
  %69 = load i32, i32* %8, align 4
  %70 = add nsw i32 %69, 1
  store i32 %70, i32* %8, align 4
  br label %47

71:                                               ; preds = %47
  br label %72

72:                                               ; preds = %71
  %73 = load i32, i32* %7, align 4
  %74 = add nsw i32 %73, 1
  store i32 %74, i32* %7, align 4
  br label %26

75:                                               ; preds = %26
  store i32 1, i32* %7, align 4
  br label %76

76:                                               ; preds = %93, %75
  %77 = load i32, i32* %7, align 4
  %78 = icmp sle i32 %77, 26
  br i1 %78, label %79, label %96

79:                                               ; preds = %76
  %80 = load i32, i32* %7, align 4
  %81 = sext i32 %80 to i64
  %82 = getelementptr inbounds [27 x i32], [27 x i32]* %9, i64 0, i64 %81
  %83 = load i32, i32* %82, align 4
  %84 = load i32, i32* %11, align 4
  %85 = icmp sgt i32 %83, %84
  br i1 %85, label %86, label %92

86:                                               ; preds = %79
  %87 = load i32, i32* %7, align 4
  %88 = sext i32 %87 to i64
  %89 = getelementptr inbounds [27 x i32], [27 x i32]* %9, i64 0, i64 %88
  %90 = load i32, i32* %89, align 4
  store i32 %90, i32* %11, align 4
  %91 = load i32, i32* %7, align 4
  store i32 %91, i32* %12, align 4
  br label %92

92:                                               ; preds = %86, %79
  br label %93

93:                                               ; preds = %92
  %94 = load i32, i32* %7, align 4
  %95 = add nsw i32 %94, 1
  store i32 %95, i32* %7, align 4
  br label %76

96:                                               ; preds = %76
  %97 = load i32, i32* %12, align 4
  %98 = add nsw i32 %97, 64
  %99 = load i32, i32* %12, align 4
  %100 = sext i32 %99 to i64
  %101 = getelementptr inbounds [27 x i32], [27 x i32]* %9, i64 0, i64 %100
  %102 = load i32, i32* %101, align 4
  %103 = call i32 (i8*, ...) @printf(i8* getelementptr inbounds ([7 x i8], [7 x i8]* @.str.2, i64 0, i64 0), i32 %98, i32 %102)
  store i32 1, i32* %7, align 4
  br label %104

104:                                              ; preds = %146, %96
  %105 = load i32, i32* %7, align 4
  %106 = load i32, i32* %6, align 4
  %107 = icmp sle i32 %105, %106
  br i1 %107, label %108, label %149

108:                                              ; preds = %104
  %109 = load i32, i32* %7, align 4
  %110 = sext i32 %109 to i64
  %111 = getelementptr inbounds [1000 x %struct.book], [1000 x %struct.book]* @book, i64 0, i64 %110
  %112 = getelementptr inbounds %struct.book, %struct.book* %111, i32 0, i32 1
  %113 = getelementptr inbounds [27 x i8], [27 x i8]* %112, i64 0, i64 0
  %114 = call i64 @strlen(i8* %113) #3
  %115 = trunc i64 %114 to i32
  store i32 %115, i32* %10, align 4
  store i32 0, i32* %8, align 4
  br label %116

116:                                              ; preds = %142, %108
  %117 = load i32, i32* %8, align 4
  %118 = load i32, i32* %10, align 4
  %119 = sub nsw i32 %118, 1
  %120 = icmp sle i32 %117, %119
  br i1 %120, label %121, label %145

121:                                              ; preds = %116
  %122 = load i32, i32* %7, align 4
  %123 = sext i32 %122 to i64
  %124 = getelementptr inbounds [1000 x %struct.book], [1000 x %struct.book]* @book, i64 0, i64 %123
  %125 = getelementptr inbounds %struct.book, %struct.book* %124, i32 0, i32 1
  %126 = load i32, i32* %8, align 4
  %127 = sext i32 %126 to i64
  %128 = getelementptr inbounds [27 x i8], [27 x i8]* %125, i64 0, i64 %127
  %129 = load i8, i8* %128, align 1
  %130 = sext i8 %129 to i32
  %131 = load i32, i32* %12, align 4
  %132 = add nsw i32 %131, 64
  %133 = icmp eq i32 %130, %132
  br i1 %133, label %134, label %141

134:                                              ; preds = %121
  %135 = load i32, i32* %7, align 4
  %136 = sext i32 %135 to i64
  %137 = getelementptr inbounds [1000 x %struct.book], [1000 x %struct.book]* @book, i64 0, i64 %136
  %138 = getelementptr inbounds %struct.book, %struct.book* %137, i32 0, i32 0
  %139 = load i32, i32* %138, align 16
  %140 = call i32 (i8*, ...) @printf(i8* getelementptr inbounds ([4 x i8], [4 x i8]* @.str.3, i64 0, i64 0), i32 %139)
  br label %141

141:                                              ; preds = %134, %121
  br label %142

142:                                              ; preds = %141
  %143 = load i32, i32* %8, align 4
  %144 = add nsw i32 %143, 1
  store i32 %144, i32* %8, align 4
  br label %116

145:                                              ; preds = %116
  br label %146

146:                                              ; preds = %145
  %147 = load i32, i32* %7, align 4
  %148 = add nsw i32 %147, 1
  store i32 %148, i32* %7, align 4
  br label %104

149:                                              ; preds = %104
  ret i32 0
}

declare dso_local i32 @__isoc99_scanf(i8*, ...) #1

; Function Attrs: nounwind readonly
declare dso_local i64 @strlen(i8*) #2

declare dso_local i32 @printf(i8*, ...) #1


!llvm.module.flags = !{!0}
!llvm.ident = !{!1}

!0 = !{i32 1, !"wchar_size", i32 4}
!1 = !{!"clang version 10.0.0-4ubuntu1 "}
